(lp0
ccopy_reg
_reconstructor
p1
(cdestination
Destination
p2
c__builtin__
object
p3
Ntp4
Rp5
(dp6
S'_Destination__latest_usage'
p7
g1
(crospy.rostime
Time
p8
g3
Ntp9
Rp10
(lp11
I0
aI0
absS'name'
p12
S'WayPoint1'
p13
sS'pose'
p14
g1
(cgeometry_msgs.msg._Pose
Pose
p15
g3
Ntp16
Rp17
(lp18
g1
(cgeometry_msgs.msg._Point
Point
p19
g3
Ntp20
Rp21
(lp22
F-6.75
aF-2.6999999999999975
aF0.0
abag1
(cgeometry_msgs.msg._Quaternion
Quaternion
p23
g3
Ntp24
Rp25
(lp26
I0
aI0
aI0
aI1
ababsS'path_len'
p27
F8.558
sS'_Destination__stats'
p28
(lp29
sS'_Destination__available'
p30
I00
sS'_Destination__remaining_idl'
p31
g1
(g8
g3
Ntp32
Rp33
(lp34
I2
aI403000000
absS'estim_idl'
p35
F32.92
sbag1
(g2
g3
Ntp36
Rp37
(dp38
g7
g1
(g8
g3
Ntp39
Rp40
(lp41
I51
aI400000000
absg12
S'WayPoint10'
p42
sg14
g1
(g15
g3
Ntp43
Rp44
(lp45
g1
(g19
g3
Ntp46
Rp47
(lp48
F1.8500000000000014
aF2.8500000000000023
aF0.0
abag1
(g23
g3
Ntp49
Rp50
(lp51
I0
aI0
aI0
aI1
ababsg27
F0.0
sg28
(lp52
g1
(cdestination
Observation
p53
g3
Ntp54
Rp55
(dp56
S'idleness'
p57
g1
(cdestination
Idleness
p58
g3
Ntp59
Rp60
(dp61
S'_Idleness__true_idl'
p62
F51.4
sS'_Idleness__estim_idl'
p63
F27.91
sS'_Idleness__remaining_idl'
p64
F32.999
sbsg27
F7.256
sbasg30
I01
sg31
g40
sg35
I0
sbag1
(g2
g3
Ntp65
Rp66
(dp67
g7
g10
sg12
S'WayPoint11'
p68
sg14
g1
(g15
g3
Ntp69
Rp70
(lp71
g1
(g19
g3
Ntp72
Rp73
(lp74
F6.600000000000001
aF3.450000000000003
aF0.0
abag1
(g23
g3
Ntp75
Rp76
(lp77
I0
aI0
aI0
aI1
ababsg27
F16.793
sg28
(lp78
sg30
I00
sg31
g1
(g8
g3
Ntp79
Rp80
(lp81
I2
aI803000000
absg35
F64.59
sbag1
(g2
g3
Ntp82
Rp83
(dp84
g7
g10
sg12
S'WayPoint2'
p85
sg14
g1
(g15
g3
Ntp86
Rp87
(lp88
g1
(g19
g3
Ntp89
Rp90
(lp91
F-3.1999999999999993
aF-3.349999999999998
aF0.0
abag1
(g23
g3
Ntp92
Rp93
(lp94
I0
aI0
aI0
aI1
ababsg27
F11.365
sg28
(lp95
sg30
I00
sg31
g80
sg35
F43.71
sbag1
(g2
g3
Ntp96
Rp97
(dp98
g7
g1
(g8
g3
Ntp99
Rp100
(lp101
I30
aI800000000
absg12
S'WayPoint3'
p102
sg14
g1
(g15
g3
Ntp103
Rp104
(lp105
g1
(g19
g3
Ntp106
Rp107
(lp108
F0.0
aF-3.349999999999998
aF0.0
abag1
(g23
g3
Ntp109
Rp110
(lp111
I0
aI0
aI0
aI1
ababsg27
F3.045
sg28
(lp112
g1
(g53
g3
Ntp113
Rp114
(dp115
g57
g1
(g58
g3
Ntp116
Rp117
(dp118
g62
F30.8
sg63
F25.97
sg64
F27.997
sbsg27
F6.752
sbasg30
I00
sg31
g1
(g8
g3
Ntp119
Rp120
(lp121
I43
aI200000000
absg35
F11.71
sbag1
(g2
g3
Ntp122
Rp123
(dp124
g7
g10
sg12
S'WayPoint4'
p125
sg14
g1
(g15
g3
Ntp126
Rp127
(lp128
g1
(g19
g3
Ntp129
Rp130
(lp131
F2.3500000000000014
aF-3.2499999999999982
aF0.0
abag1
(g23
g3
Ntp132
Rp133
(lp134
I0
aI0
aI0
aI1
ababsg27
F6.604
sg28
(lp135
sg30
I00
sg31
g1
(g8
g3
Ntp136
Rp137
(lp138
I31
aI200000000
absg35
F25.4
sbag1
(g2
g3
Ntp139
Rp140
(dp141
g7
g1
(g8
g3
Ntp142
Rp143
(lp144
I46
aI401000000
absg12
S'WayPoint5'
p145
sg14
g1
(g15
g3
Ntp146
Rp147
(lp148
g1
(g19
g3
Ntp149
Rp150
(lp151
F5.4
aF-3.4499999999999975
aF0.0
abag1
(g23
g3
Ntp152
Rp153
(lp154
I0
aI0
aI0
aI1
ababsg27
F0.0
sg28
(lp155
g1
(g53
g3
Ntp156
Rp157
(dp158
g57
g1
(g58
g3
Ntp159
Rp160
(dp161
g62
F46.401
sg63
F36.93
sg64
F43.001
sbsg27
F9.603
sbasg30
I01
sg31
g143
sg35
I0
sbag1
(g2
g3
Ntp162
Rp163
(dp164
g7
g1
(g8
g3
Ntp165
Rp166
(lp167
I14
aI800000000
absg12
S'WayPoint6'
p168
sg14
g1
(g15
g3
Ntp169
Rp170
(lp171
g1
(g19
g3
Ntp172
Rp173
(lp174
F4.850000000000001
aF-0.7499999999999982
aF0.0
abag1
(g23
g3
Ntp175
Rp176
(lp177
I0
aI0
aI0
aI1
ababsg27
F4.36
sg28
(lp178
g1
(g53
g3
Ntp179
Rp180
(dp181
g57
g1
(g58
g3
Ntp182
Rp183
(dp184
g62
F14.8
sg63
F16.44
sg64
F11.997
sbsg27
F4.275
sbasg30
I00
sg31
g1
(g8
g3
Ntp185
Rp186
(lp187
I47
aI409000000
absg35
F16.77
sbag1
(g2
g3
Ntp188
Rp189
(dp190
g7
g1
(g8
g3
Ntp191
Rp192
(lp193
I42
aI200000000
absg12
S'WayPoint7'
p194
sg14
g1
(g15
g3
Ntp195
Rp196
(lp197
g1
(g19
g3
Ntp198
Rp199
(lp200
F1.0500000000000007
aF-0.6999999999999975
aF0.0
abag1
(g23
g3
Ntp201
Rp202
(lp203
I0
aI0
aI0
aI1
ababsg27
F3.94
sg28
(lp204
g1
(g53
g3
Ntp205
Rp206
(dp207
g57
g1
(g58
g3
Ntp208
Rp209
(dp210
g62
F42.2
sg63
F15.7
sg64
F27.0
sbsg27
F4.083
sbasg30
I00
sg31
g1
(g8
g3
Ntp211
Rp212
(lp213
I52
aI400000000
absg35
F15.16
sbag1
(g2
g3
Ntp214
Rp215
(dp216
g7
g1
(g8
g3
Ntp217
Rp218
(lp219
I17
aI401000000
absg12
S'WayPoint8'
p220
sg14
g1
(g15
g3
Ntp221
Rp222
(lp223
g1
(g19
g3
Ntp224
Rp225
(lp226
F-3.05
aF-0.5999999999999979
aF0.0
abag1
(g23
g3
Ntp227
Rp228
(lp229
I0
aI0
aI0
aI1
ababsg27
F0.0
sg28
(lp230
g1
(g53
g3
Ntp231
Rp232
(dp233
g57
g1
(g58
g3
Ntp234
Rp235
(dp236
g62
F17.401
sg63
F13.21
sg64
F14.001
sbsg27
F3.435
sbasg30
I01
sg31
g218
sg35
I0
sbag1
(g2
g3
Ntp237
Rp238
(dp239
g7
g10
sg12
S'WayPoint9'
p240
sg14
g1
(g15
g3
Ntp241
Rp242
(lp243
g1
(g19
g3
Ntp244
Rp245
(lp246
F-1.5
aF2.700000000000003
aF0.0
abag1
(g23
g3
Ntp247
Rp248
(lp249
I0
aI0
aI0
aI1
ababsg27
F14.475
sg28
(lp250
sg30
I00
sg31
g80
sg35
F55.67
sba.